target datalayout = "e-m:e-p270:32:32-p271:32:32-p272:64:64-i64:64-i128:128-f80:128-n8:16:32:64-S128"
target triple = "x86_64-pc-linux-gnu"

%"struct.duckdb_yyjson::yyjson_alc" = type { ptr, ptr, ptr, ptr }
%"struct.duckdb_yyjson::yyjson_str_pool" = type { ptr, ptr, i64, i64, ptr }
%"struct.duckdb_yyjson::yyjson_str_chunk" = type { ptr, i64 }

; Function Attrs: mustprogress uwtable
define noundef zeroext i1 @_ZN13duckdb_yyjson27unsafe_yyjson_str_pool_growEPNS_15yyjson_str_poolEPKNS_10yyjson_alcEm(ptr noundef %0, ptr noundef %1, i64 noundef %2) #1 {
  %4 = alloca i1, align 1
  %5 = alloca ptr, align 8
  %6 = alloca ptr, align 8
  %7 = alloca i64, align 8
  %8 = alloca ptr, align 8
  %9 = alloca i64, align 8
  %10 = alloca i64, align 8
  %11 = alloca i32, align 4
  store ptr %0, ptr %5, align 8, !tbaa !43
  store ptr %1, ptr %6, align 8, !tbaa !3
  store i64 %2, ptr %7, align 8, !tbaa !9
  call void @llvm.lifetime.start.p0(i64 8, ptr %8) #15
  call void @llvm.lifetime.start.p0(i64 8, ptr %9) #15
  call void @llvm.lifetime.start.p0(i64 8, ptr %10) #15
  store i64 -17, ptr %10, align 8, !tbaa !9
  %12 = load i64, ptr %7, align 8, !tbaa !9
  %13 = load i64, ptr %10, align 8, !tbaa !9
  %14 = icmp ugt i64 %12, %13
  %15 = xor i1 %14, true
  %16 = xor i1 %15, true
  %17 = zext i1 %16 to i64
  %18 = call i64 @llvm.expect.i64(i64 %17, i64 0)
  %19 = icmp ne i64 %18, 0
  br i1 %19, label %20, label %21

20:                                               ; preds = %3
  store i1 false, ptr %4, align 1
  store i32 1, ptr %11, align 4
  br label %107

21:                                               ; preds = %3
  %22 = load i64, ptr %7, align 8, !tbaa !9
  %23 = add i64 %22, 16
  store i64 %23, ptr %9, align 8, !tbaa !9
  %24 = load ptr, ptr %5, align 8, !tbaa !43
  %25 = getelementptr inbounds nuw %"struct.duckdb_yyjson::yyjson_str_pool", ptr %24, i32 0, i32 2
  %26 = load i64, ptr %25, align 8, !tbaa !45
  %27 = load i64, ptr %9, align 8, !tbaa !9
  %28 = icmp ugt i64 %26, %27
  br i1 %28, label %29, label %33

29:                                               ; preds = %21
  %30 = load ptr, ptr %5, align 8, !tbaa !43
  %31 = getelementptr inbounds nuw %"struct.duckdb_yyjson::yyjson_str_pool", ptr %30, i32 0, i32 2
  %32 = load i64, ptr %31, align 8, !tbaa !45
  br label %35

33:                                               ; preds = %21
  %34 = load i64, ptr %9, align 8, !tbaa !9
  br label %35

35:                                               ; preds = %33, %29
  %36 = phi i64 [ %32, %29 ], [ %34, %33 ]
  store i64 %36, ptr %9, align 8, !tbaa !9
  %37 = load ptr, ptr %6, align 8, !tbaa !3
  %38 = getelementptr inbounds nuw %"struct.duckdb_yyjson::yyjson_alc", ptr %37, i32 0, i32 0
  %39 = load ptr, ptr %38, align 8, !tbaa !22
  %40 = load ptr, ptr %6, align 8, !tbaa !3
  %41 = getelementptr inbounds nuw %"struct.duckdb_yyjson::yyjson_alc", ptr %40, i32 0, i32 3
  %42 = load ptr, ptr %41, align 8, !tbaa !26
  %43 = load i64, ptr %9, align 8, !tbaa !9
  %44 = call noundef ptr %39(ptr noundef %42, i64 noundef %43)
  store ptr %44, ptr %8, align 8, !tbaa !49
  %45 = load ptr, ptr %8, align 8, !tbaa !49
  %46 = icmp ne ptr %45, null
  %47 = xor i1 %46, true
  %48 = xor i1 %47, true
  %49 = xor i1 %48, true
  %50 = zext i1 %49 to i64
  %51 = call i64 @llvm.expect.i64(i64 %50, i64 0)
  %52 = icmp ne i64 %51, 0
  br i1 %52, label %53, label %54

53:                                               ; preds = %35
  store i1 false, ptr %4, align 1
  store i32 1, ptr %11, align 4
  br label %107

54:                                               ; preds = %35
  %55 = load ptr, ptr %5, align 8, !tbaa !43
  %56 = getelementptr inbounds nuw %"struct.duckdb_yyjson::yyjson_str_pool", ptr %55, i32 0, i32 4
  %57 = load ptr, ptr %56, align 8, !tbaa !50
  %58 = load ptr, ptr %8, align 8, !tbaa !49
  %59 = getelementptr inbounds nuw %"struct.duckdb_yyjson::yyjson_str_chunk", ptr %58, i32 0, i32 0
  store ptr %57, ptr %59, align 8, !tbaa !51
  %60 = load i64, ptr %9, align 8, !tbaa !9
  %61 = load ptr, ptr %8, align 8, !tbaa !49
  %62 = getelementptr inbounds nuw %"struct.duckdb_yyjson::yyjson_str_chunk", ptr %61, i32 0, i32 1
  store i64 %60, ptr %62, align 8, !tbaa !53
  %63 = load ptr, ptr %8, align 8, !tbaa !49
  %64 = load ptr, ptr %5, align 8, !tbaa !43
  %65 = getelementptr inbounds nuw %"struct.duckdb_yyjson::yyjson_str_pool", ptr %64, i32 0, i32 4
  store ptr %63, ptr %65, align 8, !tbaa !50
  %66 = load ptr, ptr %8, align 8, !tbaa !49
  %67 = getelementptr inbounds nuw i8, ptr %66, i64 16
  %68 = load ptr, ptr %5, align 8, !tbaa !43
  %69 = getelementptr inbounds nuw %"struct.duckdb_yyjson::yyjson_str_pool", ptr %68, i32 0, i32 0
  store ptr %67, ptr %69, align 8, !tbaa !54
  %70 = load ptr, ptr %8, align 8, !tbaa !49
  %71 = load i64, ptr %9, align 8, !tbaa !9
  %72 = getelementptr inbounds nuw i8, ptr %70, i64 %71
  %73 = load ptr, ptr %5, align 8, !tbaa !43
  %74 = getelementptr inbounds nuw %"struct.duckdb_yyjson::yyjson_str_pool", ptr %73, i32 0, i32 1
  store ptr %72, ptr %74, align 8, !tbaa !55
  %75 = load ptr, ptr %5, align 8, !tbaa !43
  %76 = getelementptr inbounds nuw %"struct.duckdb_yyjson::yyjson_str_pool", ptr %75, i32 0, i32 2
  %77 = load i64, ptr %76, align 8, !tbaa !45
  %78 = mul i64 %77, 2
  %79 = load ptr, ptr %5, align 8, !tbaa !43
  %80 = getelementptr inbounds nuw %"struct.duckdb_yyjson::yyjson_str_pool", ptr %79, i32 0, i32 3
  %81 = load i64, ptr %80, align 8, !tbaa !56
  %82 = icmp ult i64 %78, %81
  br i1 %82, label %83, label %88

83:                                               ; preds = %54
  %84 = load ptr, ptr %5, align 8, !tbaa !43
  %85 = getelementptr inbounds nuw %"struct.duckdb_yyjson::yyjson_str_pool", ptr %84, i32 0, i32 2
  %86 = load i64, ptr %85, align 8, !tbaa !45
  %87 = mul i64 %86, 2
  br label %92

88:                                               ; preds = %54
  %89 = load ptr, ptr %5, align 8, !tbaa !43
  %90 = getelementptr inbounds nuw %"struct.duckdb_yyjson::yyjson_str_pool", ptr %89, i32 0, i32 3
  %91 = load i64, ptr %90, align 8, !tbaa !56
  br label %92

92:                                               ; preds = %88, %83
  %93 = phi i64 [ %87, %83 ], [ %91, %88 ]
  store i64 %93, ptr %9, align 8, !tbaa !9
  %94 = load i64, ptr %9, align 8, !tbaa !9
  %95 = load ptr, ptr %5, align 8, !tbaa !43
  %96 = getelementptr inbounds nuw %"struct.duckdb_yyjson::yyjson_str_pool", ptr %95, i32 0, i32 2
  %97 = load i64, ptr %96, align 8, !tbaa !45
  %98 = icmp ult i64 %94, %97
  br i1 %98, label %99, label %103

99:                                               ; preds = %92
  %100 = load ptr, ptr %5, align 8, !tbaa !43
  %101 = getelementptr inbounds nuw %"struct.duckdb_yyjson::yyjson_str_pool", ptr %100, i32 0, i32 3
  %102 = load i64, ptr %101, align 8, !tbaa !56
  store i64 %102, ptr %9, align 8, !tbaa !9
  br label %103

103:                                              ; preds = %99, %92
  %104 = load i64, ptr %9, align 8, !tbaa !9
  %105 = load ptr, ptr %5, align 8, !tbaa !43
  %106 = getelementptr inbounds nuw %"struct.duckdb_yyjson::yyjson_str_pool", ptr %105, i32 0, i32 2
  store i64 %104, ptr %106, align 8, !tbaa !45
  store i1 true, ptr %4, align 1
  store i32 1, ptr %11, align 4
  br label %107

107:                                              ; preds = %103, %53, %20
  call void @llvm.lifetime.end.p0(i64 8, ptr %10) #15
  call void @llvm.lifetime.end.p0(i64 8, ptr %9) #15
  call void @llvm.lifetime.end.p0(i64 8, ptr %8) #15
  %108 = load i1, ptr %4, align 1
  ret i1 %108
}