; Function Attrs: mustprogress uwtable
define noundef zeroext i1 @_ZN13duckdb_yyjson27unsafe_yyjson_str_pool_growEPNS_15yyjson_str_poolEPKNS_10yyjson_alcEm(ptr noundef captures(none) %0, ptr noundef readonly captures(none) %1, i64 noundef %2) local_unnamed_addr #10 {
  %4 = icmp ugt i64 %2, -17
  br i1 %4, label %25, label %5, !prof !3

5:                                                ; preds = %3
  %6 = add nuw i64 %2, 16
  %7 = getelementptr inbounds nuw i8, ptr %0, i64 16
  %8 = load i64, ptr %7, align 8, !tbaa !40
  %. = tail call i64 @llvm.umax.i64(i64 %8, i64 %6)
  %9 = load ptr, ptr %1, align 8, !tbaa !17
  %10 = getelementptr inbounds nuw i8, ptr %1, i64 24
  %11 = load ptr, ptr %10, align 8, !tbaa !21
  %12 = tail call noundef ptr %9(ptr noundef %11, i64 noundef %.)
  %.not = icmp eq ptr %12, null
  br i1 %.not, label %25, label %13, !prof !3

13:                                               ; preds = %5
  %14 = getelementptr inbounds nuw i8, ptr %0, i64 32
  %15 = load ptr, ptr %14, align 8, !tbaa !44
  store ptr %15, ptr %12, align 8, !tbaa !45
  %16 = getelementptr inbounds nuw i8, ptr %12, i64 8
  store i64 %., ptr %16, align 8, !tbaa !47
  store ptr %12, ptr %14, align 8, !tbaa !44
  %17 = getelementptr inbounds nuw i8, ptr %12, i64 16
  store ptr %17, ptr %0, align 8, !tbaa !48
  %18 = getelementptr inbounds nuw i8, ptr %12, i64 %.
  %19 = getelementptr inbounds nuw i8, ptr %0, i64 8
  store ptr %18, ptr %19, align 8, !tbaa !49
  %20 = load i64, ptr %7, align 8, !tbaa !40
  %21 = shl i64 %20, 1
  %22 = getelementptr inbounds nuw i8, ptr %0, i64 24
  %23 = load i64, ptr %22, align 8, !tbaa !50
  %.38 = tail call i64 @llvm.umin.i64(i64 %21, i64 %23)
  %24 = icmp ult i64 %.38, %20
  %spec.select = select i1 %24, i64 %23, i64 %.38
  store i64 %spec.select, ptr %7, align 8, !tbaa !40
  br label %25

25:                                               ; preds = %5, %3, %13
  %.0 = phi i1 [ true, %13 ], [ false, %3 ], [ false, %5 ]
  ret i1 %.0
}